; Function Attrs: nounwind uwtable
define ptr @l_Lean_Meta_IndPredBelow_mkBrecOnDecl_mkIH___lambda__2___boxed(ptr noundef %0, ptr noundef %1, ptr noundef %2, ptr noundef %3, ptr noundef %4, ptr noundef %5, ptr noundef %6, ptr noundef %7, ptr noundef %8, ptr noundef %9, ptr noundef %10) #0 {
  tail call void @lean_inc_heartbeat() #6
  %12 = tail call noalias ptr @mi_malloc_small(i64 noundef 56) #6
  %13 = icmp eq ptr %12, null
  br i1 %13, label %14, label %l_Lean_Meta_IndPredBelow_mkBrecOnDecl_mkIH___lambda__2.exit

14:                                               ; preds = %11
  tail call void @lean_internal_panic_out_of_memory() #7
  unreachable

l_Lean_Meta_IndPredBelow_mkBrecOnDecl_mkIH___lambda__2.exit: ; preds = %11
  %15 = getelementptr inbounds nuw i8, ptr %12, i64 4
  store i32 1, ptr %12, align 4, !tbaa !12
  store i32 -184549320, ptr %15, align 4
  %16 = getelementptr inbounds nuw i8, ptr %12, i64 8
  store ptr @l_Lean_Meta_IndPredBelow_mkBrecOnDecl_mkIH___lambda__1___boxed, ptr %16, align 8, !tbaa !4
  %17 = getelementptr inbounds nuw i8, ptr %12, i64 16
  store i16 11, ptr %17, align 8, !tbaa !15
  %18 = getelementptr inbounds nuw i8, ptr %12, i64 18
  store i16 4, ptr %18, align 2, !tbaa !15
  %19 = getelementptr inbounds nuw i8, ptr %12, i64 24
  store ptr %0, ptr %19, align 8, !tbaa !4
  %20 = getelementptr inbounds nuw i8, ptr %12, i64 32
  store ptr %1, ptr %20, align 8, !tbaa !4
  %21 = getelementptr inbounds nuw i8, ptr %12, i64 40
  store ptr %2, ptr %21, align 8, !tbaa !4
  %22 = getelementptr inbounds nuw i8, ptr %12, i64 48
  store ptr %3, ptr %22, align 8, !tbaa !4
  %23 = tail call ptr @l_Lean_Meta_forallTelescopeReducing___at_Lean_Meta_getParamNames___spec__2___rarg(ptr noundef %4, ptr noundef nonnull %12, i8 noundef zeroext 0, ptr noundef %6, ptr noundef %7, ptr noundef %8, ptr noundef %9, ptr noundef %10) #6
  %24 = ptrtoint ptr %5 to i64
  %25 = and i64 %24, 1
  %.not = icmp eq i64 %25, 0
  br i1 %.not, label %26, label %lean_dec.exit

26:                                               ; preds = %l_Lean_Meta_IndPredBelow_mkBrecOnDecl_mkIH___lambda__2.exit
  %27 = load i32, ptr %5, align 4, !tbaa !12
  %28 = icmp sgt i32 %27, 1
  br i1 %28, label %29, label %31, !prof !11

29:                                               ; preds = %26
  %30 = add nsw i32 %27, -1
  store i32 %30, ptr %5, align 4, !tbaa !12
  br label %lean_dec.exit

31:                                               ; preds = %26
  %.not.i = icmp eq i32 %27, 0
  br i1 %.not.i, label %lean_dec.exit, label %32

32:                                               ; preds = %31
  tail call void @lean_dec_ref_cold(ptr noundef nonnull %5) #6
  br label %lean_dec.exit

lean_dec.exit:                                    ; preds = %32, %31, %29, %l_Lean_Meta_IndPredBelow_mkBrecOnDecl_mkIH___lambda__2.exit
  ret ptr %23
}